ccopy_reg
_reconstructor
p0
(csklearn.model_selection._search
GridSearchCV
p1
c__builtin__
object
p2
Ntp3
Rp4
(dp5
S'scoring'
p6
S'f1'
p7
sS'n_jobs'
p8
I1
sS'verbose'
p9
I0
sS'fit_params'
p10
NsS'refit'
p11
I01
sS'return_train_score'
p12
S'warn'
p13
sS'iid'
p14
I01
sS'estimator'
p15
g0
(csklearn.naive_bayes
GaussianNB
p16
g2
Ntp17
Rp18
(dp19
S'priors'
p20
NsS'_sklearn_version'
p21
S'0.19.1'
p22
sbsg21
g22
sS'error_score'
p23
S'raise'
p24
sS'pre_dispatch'
p25
S'2*n_jobs'
p26
sS'param_grid'
p27
(dp28
sS'cv'
p29
g0
(csklearn.model_selection._split
StratifiedShuffleSplit
p30
g2
Ntp31
Rp32
(dp33
S'train_size'
p34
NsS'test_size'
p35
F0.3
sS'random_state'
p36
I42
sS'n_splits'
p37
I3
sbsb.